; Function Attrs: nounwind uwtable
define ptr @l_Array_mapMUnsafe_map___at_Lean_Elab_getFixedParamsInfo___spec__18___boxed(ptr noundef %0, ptr noundef %1, ptr noundef %2, ptr noundef %3, ptr noundef %4, ptr noundef %5, ptr noundef %6, ptr noundef %7, ptr noundef %8, ptr noundef %9, ptr noundef %10, ptr noundef %11, ptr noundef %12, ptr noundef %13, ptr noundef %14) local_unnamed_addr #1 {
  %16 = ptrtoint ptr %2 to i64
  %17 = and i64 %16, 1
  %.not = icmp eq i64 %17, 0
  br i1 %.not, label %18, label %lean_dec.exit25

18:                                               ; preds = %15
  %19 = load i32, ptr %2, align 4, !tbaa !4
  %20 = icmp sgt i32 %19, 1
  br i1 %20, label %21, label %23, !prof !11

21:                                               ; preds = %18
  %22 = add nsw i32 %19, -1
  store i32 %22, ptr %2, align 4, !tbaa !4
  br label %lean_dec.exit25

23:                                               ; preds = %18
  %.not.i = icmp eq i32 %19, 0
  br i1 %.not.i, label %lean_dec.exit25, label %24

24:                                               ; preds = %23
  tail call void @lean_dec_ref_cold(ptr noundef nonnull %2) #5
  br label %lean_dec.exit25

lean_dec.exit25:                                  ; preds = %24, %23, %21, %15
  %25 = ptrtoint ptr %3 to i64
  %26 = and i64 %25, 1
  %.not33 = icmp eq i64 %26, 0
  br i1 %.not33, label %27, label %lean_dec.exit24

27:                                               ; preds = %lean_dec.exit25
  %28 = load i32, ptr %3, align 4, !tbaa !4
  %29 = icmp sgt i32 %28, 1
  br i1 %29, label %30, label %32, !prof !11

30:                                               ; preds = %27
  %31 = add nsw i32 %28, -1
  store i32 %31, ptr %3, align 4, !tbaa !4
  br label %lean_dec.exit24

32:                                               ; preds = %27
  %.not.i26 = icmp eq i32 %28, 0
  br i1 %.not.i26, label %lean_dec.exit24, label %33

33:                                               ; preds = %32
  tail call void @lean_dec_ref_cold(ptr noundef nonnull %3) #5
  br label %lean_dec.exit24

lean_dec.exit24:                                  ; preds = %33, %32, %30, %lean_dec.exit25
  %34 = getelementptr i8, ptr %6, i64 8
  %.val32 = load i64, ptr %34, align 8, !tbaa !12
  %35 = ptrtoint ptr %6 to i64
  %36 = and i64 %35, 1
  %.not34 = icmp eq i64 %36, 0
  br i1 %.not34, label %37, label %lean_dec.exit23

37:                                               ; preds = %lean_dec.exit24
  %38 = load i32, ptr %6, align 4, !tbaa !4
  %39 = icmp sgt i32 %38, 1
  br i1 %39, label %40, label %42, !prof !11

40:                                               ; preds = %37
  %41 = add nsw i32 %38, -1
  store i32 %41, ptr %6, align 4, !tbaa !4
  br label %lean_dec.exit23

42:                                               ; preds = %37
  %.not.i28 = icmp eq i32 %38, 0
  br i1 %.not.i28, label %lean_dec.exit23, label %43

43:                                               ; preds = %42
  tail call void @lean_dec_ref_cold(ptr noundef nonnull %6) #5
  br label %lean_dec.exit23

lean_dec.exit23:                                  ; preds = %43, %42, %40, %lean_dec.exit24
  %44 = getelementptr i8, ptr %7, i64 8
  %.val = load i64, ptr %44, align 8, !tbaa !12
  %45 = ptrtoint ptr %7 to i64
  %46 = and i64 %45, 1
  %.not35 = icmp eq i64 %46, 0
  br i1 %.not35, label %47, label %lean_dec.exit

47:                                               ; preds = %lean_dec.exit23
  %48 = load i32, ptr %7, align 4, !tbaa !4
  %49 = icmp sgt i32 %48, 1
  br i1 %49, label %50, label %52, !prof !11

50:                                               ; preds = %47
  %51 = add nsw i32 %48, -1
  store i32 %51, ptr %7, align 4, !tbaa !4
  br label %lean_dec.exit

52:                                               ; preds = %47
  %.not.i30 = icmp eq i32 %48, 0
  br i1 %.not.i30, label %lean_dec.exit, label %53

53:                                               ; preds = %52
  tail call void @lean_dec_ref_cold(ptr noundef nonnull %7) #5
  br label %lean_dec.exit

lean_dec.exit:                                    ; preds = %53, %52, %50, %lean_dec.exit23
  %54 = lshr i64 %25, 1
  %55 = trunc i64 %54 to i8
  %56 = lshr i64 %16, 1
  %57 = trunc i64 %56 to i8
  %58 = tail call ptr @l_Array_mapMUnsafe_map___at_Lean_Elab_getFixedParamsInfo___spec__18(ptr noundef %0, ptr noundef %1, i8 noundef zeroext %57, i8 noundef zeroext %55, ptr noundef %4, ptr noundef %5, i64 noundef %.val32, i64 noundef %.val, ptr noundef %8, ptr noundef %9, ptr noundef %10, ptr noundef %11, ptr noundef %12, ptr noundef %13, ptr noundef %14)
  ret ptr %58
}